target datalayout = "e-m:e-p270:32:32-p271:32:32-p272:64:64-i64:64-i128:128-f80:128-n8:16:32:64-S128"
target triple = "x86_64-pc-linux-gnu"

%struct.dbd_job_comp_msg = type { ptr, i32, ptr, i64, i32, i64, ptr, i32, ptr, i32, i32, ptr, i32, i64, i64, ptr, ptr }

@.str = private unnamed_addr constant [16 x i8] c"slurmdbd_pack.c\00", align 1
@__func__._unpack_job_complete_msg = private unnamed_addr constant [25 x i8] c"_unpack_job_complete_msg\00", align 1

; Function Attrs: nounwind uwtable
define internal i32 @_unpack_job_complete_msg(ptr noundef %0, i16 noundef zeroext %1, ptr noundef %2) #0 {
  %4 = alloca i32, align 4
  %5 = alloca ptr, align 8
  %6 = alloca i16, align 2
  %7 = alloca ptr, align 8
  %8 = alloca ptr, align 8
  %9 = alloca i32, align 4
  %10 = alloca i32, align 4
  %11 = alloca i32, align 4
  %12 = alloca i32, align 4
  %13 = alloca i32, align 4
  %14 = alloca i32, align 4
  %15 = alloca i32, align 4
  %16 = alloca i32, align 4
  store ptr %0, ptr %5, align 8
  store i16 %1, ptr %6, align 2
  store ptr %2, ptr %7, align 8
  call void @llvm.lifetime.start.p0(i64 8, ptr %8) #5
  %17 = call ptr @slurm_xcalloc(i64 noundef 1, i64 noundef 128, i1 noundef zeroext true, i1 noundef zeroext false, ptr noundef @.str, i32 noundef 385, ptr noundef @__func__._unpack_job_complete_msg)
  store ptr %17, ptr %8, align 8
  %18 = load ptr, ptr %8, align 8
  %19 = load ptr, ptr %5, align 8
  store ptr %18, ptr %19, align 8
  %20 = load i16, ptr %6, align 2
  %21 = zext i16 %20 to i32
  %22 = icmp sge i32 %21, 10240
  br i1 %22, label %23, label %215

23:                                               ; preds = %3
  br label %24

24:                                               ; preds = %23
  call void @llvm.lifetime.start.p0(i64 4, ptr %9) #5
  %25 = load ptr, ptr %8, align 8
  %26 = getelementptr inbounds nuw %struct.dbd_job_comp_msg, ptr %25, i32 0, i32 0
  %27 = load ptr, ptr %7, align 8
  %28 = call i32 @unpackstr_xmalloc_chooser(ptr noundef %26, ptr noundef %9, ptr noundef %27)
  %29 = icmp ne i32 %28, 0
  br i1 %29, label %30, label %31

30:                                               ; preds = %24
  store i32 4, ptr %10, align 4
  br label %32

31:                                               ; preds = %24
  store i32 0, ptr %10, align 4
  br label %32

32:                                               ; preds = %30, %31
  call void @llvm.lifetime.end.p0(i64 4, ptr %9) #5
  %33 = load i32, ptr %10, align 4
  switch i32 %33, label %220 [
    i32 0, label %34
    i32 4, label %217
  ]

34:                                               ; preds = %32
  br label %35

35:                                               ; preds = %34
  br label %36

36:                                               ; preds = %35
  br label %37

37:                                               ; preds = %36
  %38 = load ptr, ptr %8, align 8
  %39 = getelementptr inbounds nuw %struct.dbd_job_comp_msg, ptr %38, i32 0, i32 1
  %40 = load ptr, ptr %7, align 8
  %41 = call i32 @unpack32(ptr noundef %39, ptr noundef %40)
  %42 = icmp ne i32 %41, 0
  br i1 %42, label %43, label %44

43:                                               ; preds = %37
  br label %217

44:                                               ; preds = %37
  br label %45

45:                                               ; preds = %44
  br label %46

46:                                               ; preds = %45
  br label %47

47:                                               ; preds = %46
  call void @llvm.lifetime.start.p0(i64 4, ptr %11) #5
  %48 = load ptr, ptr %8, align 8
  %49 = getelementptr inbounds nuw %struct.dbd_job_comp_msg, ptr %48, i32 0, i32 2
  %50 = load ptr, ptr %7, align 8
  %51 = call i32 @unpackstr_xmalloc_chooser(ptr noundef %49, ptr noundef %11, ptr noundef %50)
  %52 = icmp ne i32 %51, 0
  br i1 %52, label %53, label %54

53:                                               ; preds = %47
  store i32 4, ptr %10, align 4
  br label %55

54:                                               ; preds = %47
  store i32 0, ptr %10, align 4
  br label %55

55:                                               ; preds = %53, %54
  call void @llvm.lifetime.end.p0(i64 4, ptr %11) #5
  %56 = load i32, ptr %10, align 4
  switch i32 %56, label %220 [
    i32 0, label %57
    i32 4, label %217
  ]

57:                                               ; preds = %55
  br label %58

58:                                               ; preds = %57
  br label %59

59:                                               ; preds = %58
  br label %60

60:                                               ; preds = %59
  %61 = load ptr, ptr %8, align 8
  %62 = getelementptr inbounds nuw %struct.dbd_job_comp_msg, ptr %61, i32 0, i32 3
  %63 = load ptr, ptr %7, align 8
  %64 = call i32 @unpack64(ptr noundef %62, ptr noundef %63)
  %65 = icmp ne i32 %64, 0
  br i1 %65, label %66, label %67

66:                                               ; preds = %60
  br label %217

67:                                               ; preds = %60
  br label %68

68:                                               ; preds = %67
  br label %69

69:                                               ; preds = %68
  br label %70

70:                                               ; preds = %69
  %71 = load ptr, ptr %8, align 8
  %72 = getelementptr inbounds nuw %struct.dbd_job_comp_msg, ptr %71, i32 0, i32 4
  %73 = load ptr, ptr %7, align 8
  %74 = call i32 @unpack32(ptr noundef %72, ptr noundef %73)
  %75 = icmp ne i32 %74, 0
  br i1 %75, label %76, label %77

76:                                               ; preds = %70
  br label %217

77:                                               ; preds = %70
  br label %78

78:                                               ; preds = %77
  br label %79

79:                                               ; preds = %78
  br label %80

80:                                               ; preds = %79
  %81 = load ptr, ptr %8, align 8
  %82 = getelementptr inbounds nuw %struct.dbd_job_comp_msg, ptr %81, i32 0, i32 5
  %83 = load ptr, ptr %7, align 8
  %84 = call i32 @unpack_time(ptr noundef %82, ptr noundef %83)
  %85 = icmp ne i32 %84, 0
  br i1 %85, label %86, label %87

86:                                               ; preds = %80
  br label %217

87:                                               ; preds = %80
  br label %88

88:                                               ; preds = %87
  br label %89

89:                                               ; preds = %88
  br label %90

90:                                               ; preds = %89
  %91 = load ptr, ptr %8, align 8
  %92 = getelementptr inbounds nuw %struct.dbd_job_comp_msg, ptr %91, i32 0, i32 7
  %93 = load ptr, ptr %7, align 8
  %94 = call i32 @unpack32(ptr noundef %92, ptr noundef %93)
  %95 = icmp ne i32 %94, 0
  br i1 %95, label %96, label %97

96:                                               ; preds = %90
  br label %217

97:                                               ; preds = %90
  br label %98

98:                                               ; preds = %97
  br label %99

99:                                               ; preds = %98
  br label %100

100:                                              ; preds = %99
  call void @llvm.lifetime.start.p0(i64 4, ptr %12) #5
  %101 = load ptr, ptr %8, align 8
  %102 = getelementptr inbounds nuw %struct.dbd_job_comp_msg, ptr %101, i32 0, i32 8
  %103 = load ptr, ptr %7, align 8
  %104 = call i32 @unpackstr_xmalloc_chooser(ptr noundef %102, ptr noundef %12, ptr noundef %103)
  %105 = icmp ne i32 %104, 0
  br i1 %105, label %106, label %107

106:                                              ; preds = %100
  store i32 4, ptr %10, align 4
  br label %108

107:                                              ; preds = %100
  store i32 0, ptr %10, align 4
  br label %108

108:                                              ; preds = %106, %107
  call void @llvm.lifetime.end.p0(i64 4, ptr %12) #5
  %109 = load i32, ptr %10, align 4
  switch i32 %109, label %220 [
    i32 0, label %110
    i32 4, label %217
  ]

110:                                              ; preds = %108
  br label %111

111:                                              ; preds = %110
  br label %112

112:                                              ; preds = %111
  br label %113

113:                                              ; preds = %112
  call void @llvm.lifetime.start.p0(i64 4, ptr %13) #5
  %114 = load ptr, ptr %8, align 8
  %115 = getelementptr inbounds nuw %struct.dbd_job_comp_msg, ptr %114, i32 0, i32 6
  %116 = load ptr, ptr %7, align 8
  %117 = call i32 @unpackstr_xmalloc_chooser(ptr noundef %115, ptr noundef %13, ptr noundef %116)
  %118 = icmp ne i32 %117, 0
  br i1 %118, label %119, label %120

119:                                              ; preds = %113
  store i32 4, ptr %10, align 4
  br label %121

120:                                              ; preds = %113
  store i32 0, ptr %10, align 4
  br label %121

121:                                              ; preds = %119, %120
  call void @llvm.lifetime.end.p0(i64 4, ptr %13) #5
  %122 = load i32, ptr %10, align 4
  switch i32 %122, label %220 [
    i32 0, label %123
    i32 4, label %217
  ]

123:                                              ; preds = %121
  br label %124

124:                                              ; preds = %123
  br label %125

125:                                              ; preds = %124
  br label %126

126:                                              ; preds = %125
  %127 = load ptr, ptr %8, align 8
  %128 = getelementptr inbounds nuw %struct.dbd_job_comp_msg, ptr %127, i32 0, i32 9
  %129 = load ptr, ptr %7, align 8
  %130 = call i32 @unpack32(ptr noundef %128, ptr noundef %129)
  %131 = icmp ne i32 %130, 0
  br i1 %131, label %132, label %133

132:                                              ; preds = %126
  br label %217

133:                                              ; preds = %126
  br label %134

134:                                              ; preds = %133
  br label %135

135:                                              ; preds = %134
  br label %136

136:                                              ; preds = %135
  %137 = load ptr, ptr %8, align 8
  %138 = getelementptr inbounds nuw %struct.dbd_job_comp_msg, ptr %137, i32 0, i32 10
  %139 = load ptr, ptr %7, align 8
  %140 = call i32 @unpack32(ptr noundef %138, ptr noundef %139)
  %141 = icmp ne i32 %140, 0
  br i1 %141, label %142, label %143

142:                                              ; preds = %136
  br label %217

143:                                              ; preds = %136
  br label %144

144:                                              ; preds = %143
  br label %145

145:                                              ; preds = %144
  br label %146

146:                                              ; preds = %145
  call void @llvm.lifetime.start.p0(i64 4, ptr %14) #5
  %147 = load ptr, ptr %8, align 8
  %148 = getelementptr inbounds nuw %struct.dbd_job_comp_msg, ptr %147, i32 0, i32 11
  %149 = load ptr, ptr %7, align 8
  %150 = call i32 @unpackstr_xmalloc_chooser(ptr noundef %148, ptr noundef %14, ptr noundef %149)
  %151 = icmp ne i32 %150, 0
  br i1 %151, label %152, label %153

152:                                              ; preds = %146
  store i32 4, ptr %10, align 4
  br label %154

153:                                              ; preds = %146
  store i32 0, ptr %10, align 4
  br label %154

154:                                              ; preds = %152, %153
  call void @llvm.lifetime.end.p0(i64 4, ptr %14) #5
  %155 = load i32, ptr %10, align 4
  switch i32 %155, label %220 [
    i32 0, label %156
    i32 4, label %217
  ]

156:                                              ; preds = %154
  br label %157

157:                                              ; preds = %156
  br label %158

158:                                              ; preds = %157
  br label %159

159:                                              ; preds = %158
  %160 = load ptr, ptr %8, align 8
  %161 = getelementptr inbounds nuw %struct.dbd_job_comp_msg, ptr %160, i32 0, i32 12
  %162 = load ptr, ptr %7, align 8
  %163 = call i32 @unpack32(ptr noundef %161, ptr noundef %162)
  %164 = icmp ne i32 %163, 0
  br i1 %164, label %165, label %166

165:                                              ; preds = %159
  br label %217

166:                                              ; preds = %159
  br label %167

167:                                              ; preds = %166
  br label %168

168:                                              ; preds = %167
  br label %169

169:                                              ; preds = %168
  %170 = load ptr, ptr %8, align 8
  %171 = getelementptr inbounds nuw %struct.dbd_job_comp_msg, ptr %170, i32 0, i32 13
  %172 = load ptr, ptr %7, align 8
  %173 = call i32 @unpack_time(ptr noundef %171, ptr noundef %172)
  %174 = icmp ne i32 %173, 0
  br i1 %174, label %175, label %176

175:                                              ; preds = %169
  br label %217

176:                                              ; preds = %169
  br label %177

177:                                              ; preds = %176
  br label %178

178:                                              ; preds = %177
  br label %179

179:                                              ; preds = %178
  %180 = load ptr, ptr %8, align 8
  %181 = getelementptr inbounds nuw %struct.dbd_job_comp_msg, ptr %180, i32 0, i32 14
  %182 = load ptr, ptr %7, align 8
  %183 = call i32 @unpack_time(ptr noundef %181, ptr noundef %182)
  %184 = icmp ne i32 %183, 0
  br i1 %184, label %185, label %186

185:                                              ; preds = %179
  br label %217

186:                                              ; preds = %179
  br label %187

187:                                              ; preds = %186
  br label %188

188:                                              ; preds = %187
  br label %189

189:                                              ; preds = %188
  call void @llvm.lifetime.start.p0(i64 4, ptr %15) #5
  %190 = load ptr, ptr %8, align 8
  %191 = getelementptr inbounds nuw %struct.dbd_job_comp_msg, ptr %190, i32 0, i32 15
  %192 = load ptr, ptr %7, align 8
  %193 = call i32 @unpackstr_xmalloc_chooser(ptr noundef %191, ptr noundef %15, ptr noundef %192)
  %194 = icmp ne i32 %193, 0
  br i1 %194, label %195, label %196

195:                                              ; preds = %189
  store i32 4, ptr %10, align 4
  br label %197

196:                                              ; preds = %189
  store i32 0, ptr %10, align 4
  br label %197

197:                                              ; preds = %195, %196
  call void @llvm.lifetime.end.p0(i64 4, ptr %15) #5
  %198 = load i32, ptr %10, align 4
  switch i32 %198, label %220 [
    i32 0, label %199
    i32 4, label %217
  ]

199:                                              ; preds = %197
  br label %200

200:                                              ; preds = %199
  br label %201

201:                                              ; preds = %200
  br label %202

202:                                              ; preds = %201
  call void @llvm.lifetime.start.p0(i64 4, ptr %16) #5
  %203 = load ptr, ptr %8, align 8
  %204 = getelementptr inbounds nuw %struct.dbd_job_comp_msg, ptr %203, i32 0, i32 16
  %205 = load ptr, ptr %7, align 8
  %206 = call i32 @unpackstr_xmalloc_chooser(ptr noundef %204, ptr noundef %16, ptr noundef %205)
  %207 = icmp ne i32 %206, 0
  br i1 %207, label %208, label %209

208:                                              ; preds = %202
  store i32 4, ptr %10, align 4
  br label %210

209:                                              ; preds = %202
  store i32 0, ptr %10, align 4
  br label %210

210:                                              ; preds = %208, %209
  call void @llvm.lifetime.end.p0(i64 4, ptr %16) #5
  %211 = load i32, ptr %10, align 4
  switch i32 %211, label %220 [
    i32 0, label %212
    i32 4, label %217
  ]

212:                                              ; preds = %210
  br label %213

213:                                              ; preds = %212
  br label %214

214:                                              ; preds = %213
  br label %216

215:                                              ; preds = %3
  br label %217

216:                                              ; preds = %214
  store i32 0, ptr %4, align 4
  store i32 1, ptr %10, align 4
  br label %220

217:                                              ; preds = %210, %197, %154, %121, %108, %55, %32, %215, %185, %175, %165, %142, %132, %96, %86, %76, %66, %43
  %218 = load ptr, ptr %8, align 8
  call void @slurmdbd_free_job_complete_msg(ptr noundef %218)
  %219 = load ptr, ptr %5, align 8
  store ptr null, ptr %219, align 8
  store i32 -1, ptr %4, align 4
  store i32 1, ptr %10, align 4
  br label %220

220:                                              ; preds = %217, %216, %210, %197, %154, %121, %108, %55, %32
  call void @llvm.lifetime.end.p0(i64 8, ptr %8) #5
  %221 = load i32, ptr %4, align 4
  ret i32 %221
}