; Function Attrs: nounwind uwtable
define internal fastcc range(i32 -1, 1) i32 @_unpack_job_complete_msg(ptr noundef writeonly captures(none) initializes((0, 8)) %0, i16 noundef zeroext %1, ptr noundef %2) unnamed_addr #0 {
  %4 = alloca i32, align 4
  %5 = alloca i32, align 4
  %6 = alloca i32, align 4
  %7 = alloca i32, align 4
  %8 = alloca i32, align 4
  %9 = alloca i32, align 4
  %10 = alloca i32, align 4
  %11 = tail call ptr @slurm_xcalloc(i64 noundef 1, i64 noundef 128, i1 noundef zeroext true, i1 noundef zeroext false, ptr noundef nonnull @.str, i32 noundef 385, ptr noundef nonnull @__func__._unpack_job_complete_msg) #5
  store ptr %11, ptr %0, align 8
  %12 = icmp ugt i16 %1, 10239
  br i1 %12, label %13, label %63

13:                                               ; preds = %3
  call void @llvm.lifetime.start.p0(i64 4, ptr nonnull %4) #5
  %14 = call i32 @unpackstr_xmalloc_chooser(ptr noundef %11, ptr noundef nonnull %4, ptr noundef %2) #5
  %.not = icmp eq i32 %14, 0
  call void @llvm.lifetime.end.p0(i64 4, ptr nonnull %4) #5
  br i1 %.not, label %15, label %63

15:                                               ; preds = %13
  %16 = getelementptr inbounds nuw i8, ptr %11, i64 8
  %17 = call i32 @unpack32(ptr noundef nonnull %16, ptr noundef %2) #5
  %.not47 = icmp eq i32 %17, 0
  br i1 %.not47, label %18, label %63

18:                                               ; preds = %15
  call void @llvm.lifetime.start.p0(i64 4, ptr nonnull %5) #5
  %19 = getelementptr inbounds nuw i8, ptr %11, i64 16
  %20 = call i32 @unpackstr_xmalloc_chooser(ptr noundef nonnull %19, ptr noundef nonnull %5, ptr noundef %2) #5
  %.not48 = icmp eq i32 %20, 0
  call void @llvm.lifetime.end.p0(i64 4, ptr nonnull %5) #5
  br i1 %.not48, label %21, label %63

21:                                               ; preds = %18
  %22 = getelementptr inbounds nuw i8, ptr %11, i64 24
  %23 = call i32 @unpack64(ptr noundef nonnull %22, ptr noundef %2) #5
  %.not49 = icmp eq i32 %23, 0
  br i1 %.not49, label %24, label %63

24:                                               ; preds = %21
  %25 = getelementptr inbounds nuw i8, ptr %11, i64 32
  %26 = call i32 @unpack32(ptr noundef nonnull %25, ptr noundef %2) #5
  %.not50 = icmp eq i32 %26, 0
  br i1 %.not50, label %27, label %63

27:                                               ; preds = %24
  %28 = getelementptr inbounds nuw i8, ptr %11, i64 40
  %29 = call i32 @unpack_time(ptr noundef nonnull %28, ptr noundef %2) #5
  %.not51 = icmp eq i32 %29, 0
  br i1 %.not51, label %30, label %63

30:                                               ; preds = %27
  %31 = getelementptr inbounds nuw i8, ptr %11, i64 56
  %32 = call i32 @unpack32(ptr noundef nonnull %31, ptr noundef %2) #5
  %.not52 = icmp eq i32 %32, 0
  br i1 %.not52, label %33, label %63

33:                                               ; preds = %30
  call void @llvm.lifetime.start.p0(i64 4, ptr nonnull %6) #5
  %34 = getelementptr inbounds nuw i8, ptr %11, i64 64
  %35 = call i32 @unpackstr_xmalloc_chooser(ptr noundef nonnull %34, ptr noundef nonnull %6, ptr noundef %2) #5
  %.not53 = icmp eq i32 %35, 0
  call void @llvm.lifetime.end.p0(i64 4, ptr nonnull %6) #5
  br i1 %.not53, label %36, label %63

36:                                               ; preds = %33
  call void @llvm.lifetime.start.p0(i64 4, ptr nonnull %7) #5
  %37 = getelementptr inbounds nuw i8, ptr %11, i64 48
  %38 = call i32 @unpackstr_xmalloc_chooser(ptr noundef nonnull %37, ptr noundef nonnull %7, ptr noundef %2) #5
  %.not54 = icmp eq i32 %38, 0
  call void @llvm.lifetime.end.p0(i64 4, ptr nonnull %7) #5
  br i1 %.not54, label %39, label %63

39:                                               ; preds = %36
  %40 = getelementptr inbounds nuw i8, ptr %11, i64 72
  %41 = call i32 @unpack32(ptr noundef nonnull %40, ptr noundef %2) #5
  %.not55 = icmp eq i32 %41, 0
  br i1 %.not55, label %42, label %63

42:                                               ; preds = %39
  %43 = getelementptr inbounds nuw i8, ptr %11, i64 76
  %44 = call i32 @unpack32(ptr noundef nonnull %43, ptr noundef %2) #5
  %.not56 = icmp eq i32 %44, 0
  br i1 %.not56, label %45, label %63

45:                                               ; preds = %42
  call void @llvm.lifetime.start.p0(i64 4, ptr nonnull %8) #5
  %46 = getelementptr inbounds nuw i8, ptr %11, i64 80
  %47 = call i32 @unpackstr_xmalloc_chooser(ptr noundef nonnull %46, ptr noundef nonnull %8, ptr noundef %2) #5
  %.not57 = icmp eq i32 %47, 0
  call void @llvm.lifetime.end.p0(i64 4, ptr nonnull %8) #5
  br i1 %.not57, label %48, label %63

48:                                               ; preds = %45
  %49 = getelementptr inbounds nuw i8, ptr %11, i64 88
  %50 = call i32 @unpack32(ptr noundef nonnull %49, ptr noundef %2) #5
  %.not58 = icmp eq i32 %50, 0
  br i1 %.not58, label %51, label %63

51:                                               ; preds = %48
  %52 = getelementptr inbounds nuw i8, ptr %11, i64 96
  %53 = call i32 @unpack_time(ptr noundef nonnull %52, ptr noundef %2) #5
  %.not59 = icmp eq i32 %53, 0
  br i1 %.not59, label %54, label %63

54:                                               ; preds = %51
  %55 = getelementptr inbounds nuw i8, ptr %11, i64 104
  %56 = call i32 @unpack_time(ptr noundef nonnull %55, ptr noundef %2) #5
  %.not60 = icmp eq i32 %56, 0
  br i1 %.not60, label %57, label %63

57:                                               ; preds = %54
  call void @llvm.lifetime.start.p0(i64 4, ptr nonnull %9) #5
  %58 = getelementptr inbounds nuw i8, ptr %11, i64 112
  %59 = call i32 @unpackstr_xmalloc_chooser(ptr noundef nonnull %58, ptr noundef nonnull %9, ptr noundef %2) #5
  %.not61 = icmp eq i32 %59, 0
  call void @llvm.lifetime.end.p0(i64 4, ptr nonnull %9) #5
  br i1 %.not61, label %60, label %63

60:                                               ; preds = %57
  call void @llvm.lifetime.start.p0(i64 4, ptr nonnull %10) #5
  %61 = getelementptr inbounds nuw i8, ptr %11, i64 120
  %62 = call i32 @unpackstr_xmalloc_chooser(ptr noundef nonnull %61, ptr noundef nonnull %10, ptr noundef %2) #5
  %.not62 = icmp eq i32 %62, 0
  call void @llvm.lifetime.end.p0(i64 4, ptr nonnull %10) #5
  br i1 %.not62, label %64, label %63

63:                                               ; preds = %60, %57, %45, %36, %33, %18, %13, %3, %54, %51, %48, %42, %39, %30, %27, %24, %21, %15
  call void @slurmdbd_free_job_complete_msg(ptr noundef %11) #5
  store ptr null, ptr %0, align 8
  br label %64

64:                                               ; preds = %60, %63
  %.046 = phi i32 [ -1, %63 ], [ 0, %60 ]
  ret i32 %.046
}